target datalayout = "e-m:e-p270:32:32-p271:32:32-p272:64:64-i64:64-i128:128-f80:128-n8:16:32:64-S128"
target triple = "x86_64-pc-linux-gnu"

%"class.std::basic_ostream" = type { ptr, %"class.std::basic_ios" }
%"class.std::basic_ios" = type { %"class.std::ios_base", ptr, i8, i8, ptr, ptr, ptr, ptr }
%"class.std::ios_base" = type { ptr, i64, i64, i32, i32, i32, ptr, %"struct.std::ios_base::_Words", [8 x %"struct.std::ios_base::_Words"], i32, ptr, %"class.std::locale" }
%"struct.std::ios_base::_Words" = type { ptr, i64 }
%"class.std::locale" = type { ptr }

@_ZTISt9bad_alloc = external constant ptr
@_ZTISt9exception = external constant ptr
@_ZSt4cerr = external global %"class.std::basic_ostream", align 8
@.str.4 = private unnamed_addr constant [63 x i8] c"Something went wrong during jsonnet_make, please report this: \00", align 1

; Function Attrs: mustprogress uwtable
define ptr @jsonnet_make() #4 personality ptr @__gxx_personality_v0 {
  %1 = alloca ptr, align 8
  %2 = alloca ptr, align 8
  %3 = alloca i32, align 4
  %4 = alloca ptr, align 8
  %5 = alloca ptr, align 8
  %6 = invoke noalias noundef nonnull ptr @_Znwm(i64 noundef 240) #19
          to label %7 unwind label %9

7:                                                ; preds = %0
  invoke void @_ZN9JsonnetVmC2Ev(ptr noundef nonnull align 8 dereferenceable(237) %6)
          to label %8 unwind label %13

8:                                                ; preds = %7
  store ptr %6, ptr %1, align 8
  br label %53

9:                                                ; preds = %0
  %10 = landingpad { ptr, i32 }
          catch ptr @_ZTISt9bad_alloc
          catch ptr @_ZTISt9exception
  %11 = extractvalue { ptr, i32 } %10, 0
  store ptr %11, ptr %2, align 8
  %12 = extractvalue { ptr, i32 } %10, 1
  store i32 %12, ptr %3, align 4
  br label %17

13:                                               ; preds = %7
  %14 = landingpad { ptr, i32 }
          cleanup
          catch ptr @_ZTISt9bad_alloc
          catch ptr @_ZTISt9exception
  %15 = extractvalue { ptr, i32 } %14, 0
  store ptr %15, ptr %2, align 8
  %16 = extractvalue { ptr, i32 } %14, 1
  store i32 %16, ptr %3, align 4
  call void @_ZdlPv(ptr noundef %6) #22
  br label %17

17:                                               ; preds = %13, %9
  %18 = load i32, ptr %3, align 4
  %19 = call i32 @llvm.eh.typeid.for(ptr @_ZTISt9bad_alloc) #3
  %20 = icmp eq i32 %18, %19
  br i1 %20, label %21, label %26

21:                                               ; preds = %17
  %22 = load ptr, ptr %2, align 8
  %23 = call ptr @__cxa_begin_catch(ptr %22) #3
  store ptr %23, ptr %5, align 8
  invoke void @_ZL12memory_panicv()
          to label %24 unwind label %48

24:                                               ; preds = %21
  call void @__cxa_end_catch()
  br label %25

25:                                               ; preds = %24
  store ptr null, ptr %1, align 8
  br label %53

26:                                               ; preds = %17
  %27 = call i32 @llvm.eh.typeid.for(ptr @_ZTISt9exception) #3
  %28 = icmp eq i32 %18, %27
  br i1 %28, label %29, label %55

29:                                               ; preds = %26
  %30 = load ptr, ptr %2, align 8
  %31 = call ptr @__cxa_begin_catch(ptr %30) #3
  store ptr %31, ptr %4, align 8
  %32 = invoke noundef nonnull align 8 dereferenceable(8) ptr @_ZStlsISt11char_traitsIcEERSt13basic_ostreamIcT_ES5_PKc(ptr noundef nonnull align 8 dereferenceable(8) @_ZSt4cerr, ptr noundef @.str.4)
          to label %33 unwind label %43

33:                                               ; preds = %29
  %34 = load ptr, ptr %4, align 8
  %35 = load ptr, ptr %34, align 8
  %36 = getelementptr inbounds ptr, ptr %35, i64 2
  %37 = load ptr, ptr %36, align 8
  %38 = call noundef ptr %37(ptr noundef nonnull align 8 dereferenceable(8) %34) #3
  %39 = invoke noundef nonnull align 8 dereferenceable(8) ptr @_ZStlsISt11char_traitsIcEERSt13basic_ostreamIcT_ES5_PKc(ptr noundef nonnull align 8 dereferenceable(8) %32, ptr noundef %38)
          to label %40 unwind label %43

40:                                               ; preds = %33
  %41 = invoke noundef nonnull align 8 dereferenceable(8) ptr @_ZNSolsEPFRSoS_E(ptr noundef nonnull align 8 dereferenceable(8) %39, ptr noundef @_ZSt4endlIcSt11char_traitsIcEERSt13basic_ostreamIT_T0_ES6_)
          to label %42 unwind label %43

42:                                               ; preds = %40
  call void @abort() #20
  unreachable

43:                                               ; preds = %40, %33, %29
  %44 = landingpad { ptr, i32 }
          cleanup
  %45 = extractvalue { ptr, i32 } %44, 0
  store ptr %45, ptr %2, align 8
  %46 = extractvalue { ptr, i32 } %44, 1
  store i32 %46, ptr %3, align 4
  invoke void @__cxa_end_catch()
          to label %47 unwind label %60

47:                                               ; preds = %43
  br label %55

48:                                               ; preds = %21
  %49 = landingpad { ptr, i32 }
          cleanup
  %50 = extractvalue { ptr, i32 } %49, 0
  store ptr %50, ptr %2, align 8
  %51 = extractvalue { ptr, i32 } %49, 1
  store i32 %51, ptr %3, align 4
  invoke void @__cxa_end_catch()
          to label %52 unwind label %60

52:                                               ; preds = %48
  br label %55

53:                                               ; preds = %25, %8
  %54 = load ptr, ptr %1, align 8
  ret ptr %54

55:                                               ; preds = %52, %47, %26
  %56 = load ptr, ptr %2, align 8
  %57 = load i32, ptr %3, align 4
  %58 = insertvalue { ptr, i32 } poison, ptr %56, 0
  %59 = insertvalue { ptr, i32 } %58, i32 %57, 1
  resume { ptr, i32 } %59

60:                                               ; preds = %48, %43
  %61 = landingpad { ptr, i32 }
          catch ptr null
  %62 = extractvalue { ptr, i32 } %61, 0
  call void @__clang_call_terminate(ptr %62) #20
  unreachable
}