; Function Attrs: mustprogress uwtable
define noundef ptr @jsonnet_make() local_unnamed_addr #6 personality ptr @__gxx_personality_v0 {
  %1 = invoke noalias noundef nonnull dereferenceable(240) ptr @_Znwm(i64 noundef 240) #31
          to label %2 unwind label %3

2:                                                ; preds = %0
  invoke void @_ZN9JsonnetVmC2Ev(ptr noundef nonnull align 8 dereferenceable(237) %1)
          to label %28 unwind label %5

3:                                                ; preds = %0
  %4 = landingpad { ptr, i32 }
          catch ptr @_ZTISt9bad_alloc
          catch ptr @_ZTISt9exception
  br label %7

5:                                                ; preds = %2
  %6 = landingpad { ptr, i32 }
          cleanup
          catch ptr @_ZTISt9bad_alloc
          catch ptr @_ZTISt9exception
  tail call void @_ZdlPv(ptr noundef nonnull %1) #33
  br label %7

7:                                                ; preds = %5, %3
  %.pn = phi { ptr, i32 } [ %6, %5 ], [ %4, %3 ]
  %.06 = extractvalue { ptr, i32 } %.pn, 0
  %.07 = extractvalue { ptr, i32 } %.pn, 1
  %8 = tail call i32 @llvm.eh.typeid.for(ptr nonnull @_ZTISt9bad_alloc) #30
  %9 = icmp eq i32 %.07, %8
  br i1 %9, label %.unreachable, label %11

.unreachable:                                     ; preds = %7
  %10 = tail call ptr @__cxa_begin_catch(ptr %.06) #30
  tail call fastcc void @_ZL12memory_panicv()
  unreachable

11:                                               ; preds = %7
  %12 = tail call i32 @llvm.eh.typeid.for(ptr nonnull @_ZTISt9exception) #30
  %13 = icmp eq i32 %.07, %12
  br i1 %13, label %14, label %29

14:                                               ; preds = %11
  %15 = tail call ptr @__cxa_begin_catch(ptr %.06) #30
  %16 = invoke noundef nonnull align 8 dereferenceable(8) ptr @_ZStlsISt11char_traitsIcEERSt13basic_ostreamIcT_ES5_PKc(ptr noundef nonnull align 8 dereferenceable(8) @_ZSt4cerr, ptr noundef nonnull @.str.4)
          to label %17 unwind label %26

17:                                               ; preds = %14
  %18 = load ptr, ptr %15, align 8
  %19 = getelementptr inbounds i8, ptr %18, i64 16
  %20 = load ptr, ptr %19, align 8
  %21 = tail call noundef ptr %20(ptr noundef nonnull align 8 dereferenceable(8) %15) #30
  %22 = invoke noundef nonnull align 8 dereferenceable(8) ptr @_ZStlsISt11char_traitsIcEERSt13basic_ostreamIcT_ES5_PKc(ptr noundef nonnull align 8 dereferenceable(8) %16, ptr noundef %21)
          to label %23 unwind label %26

23:                                               ; preds = %17
  %24 = invoke noundef nonnull align 8 dereferenceable(8) ptr @_ZNSolsEPFRSoS_E(ptr noundef nonnull align 8 dereferenceable(8) %22, ptr noundef nonnull @_ZSt4endlIcSt11char_traitsIcEERSt13basic_ostreamIT_T0_ES6_)
          to label %25 unwind label %26

25:                                               ; preds = %23
  tail call void @abort() #29
  unreachable

26:                                               ; preds = %23, %17, %14
  %27 = landingpad { ptr, i32 }
          cleanup
  invoke void @__cxa_end_catch()
          to label %29 unwind label %30

28:                                               ; preds = %2
  ret ptr %1

29:                                               ; preds = %26, %11
  %.merged = phi { ptr, i32 } [ %27, %26 ], [ %.pn, %11 ]
  resume { ptr, i32 } %.merged

30:                                               ; preds = %26
  %31 = landingpad { ptr, i32 }
          catch ptr null
  %32 = extractvalue { ptr, i32 } %31, 0
  tail call void @__clang_call_terminate(ptr %32) #29
  unreachable
}